; Function Attrs: mustprogress uwtable
define void @_ZNK4lean11environment28check_duplicated_univ_paramsENS_8list_refINS_4nameEEE(ptr noundef nonnull align 8 dereferenceable(8) %0, ptr noundef readonly captures(none) %1) local_unnamed_addr #0 align 2 personality ptr @__gxx_personality_v0 {
  %3 = alloca %"class.lean::list_ref", align 8
  %4 = load ptr, ptr %1, align 8, !tbaa !3
  store ptr %4, ptr %3, align 8, !tbaa !3
  %5 = ptrtoint ptr %4 to i64
  %6 = and i64 %5, 1
  %.not.i.i.i = icmp eq i64 %6, 0
  br i1 %.not.i.i.i, label %7, label %_ZN4lean8list_refINS_4nameEEC2ERKS2_.exit

7:                                                ; preds = %2
  %.val.i.i.i.i = load i32, ptr %4, align 4, !tbaa !8
  %8 = icmp sgt i32 %.val.i.i.i.i, 0
  br i1 %8, label %9, label %11, !prof !11

9:                                                ; preds = %7
  %10 = add nuw nsw i32 %.val.i.i.i.i, 1
  store i32 %10, ptr %4, align 4, !tbaa !8
  br label %_ZN4lean8list_refINS_4nameEEC2ERKS2_.exit

11:                                               ; preds = %7
  %.not.i.i.i.i = icmp eq i32 %.val.i.i.i.i, 0
  br i1 %.not.i.i.i.i, label %_ZN4lean8list_refINS_4nameEEC2ERKS2_.exit, label %12

12:                                               ; preds = %11
  tail call void @lean_inc_ref_cold(ptr noundef nonnull %4)
  br label %_ZN4lean8list_refINS_4nameEEC2ERKS2_.exit

_ZN4lean8list_refINS_4nameEEC2ERKS2_.exit:        ; preds = %2, %9, %11, %12
  invoke fastcc void @_ZN4leanL28check_duplicated_univ_paramsERKNS_11environmentENS_8list_refINS_4nameEEE(ptr noundef nonnull align 8 dereferenceable(8) %0, ptr noundef %3)
          to label %13 unwind label %27

13:                                               ; preds = %_ZN4lean8list_refINS_4nameEEC2ERKS2_.exit
  %14 = load ptr, ptr %3, align 8, !tbaa !3
  %15 = ptrtoint ptr %14 to i64
  %16 = and i64 %15, 1
  %.not.i.i = icmp eq i64 %16, 0
  br i1 %.not.i.i, label %17, label %_ZN4lean10object_refD2Ev.exit

17:                                               ; preds = %13
  %18 = load i32, ptr %14, align 4, !tbaa !8
  %19 = icmp sgt i32 %18, 1
  br i1 %19, label %20, label %22, !prof !11

20:                                               ; preds = %17
  %21 = add nsw i32 %18, -1
  store i32 %21, ptr %14, align 4, !tbaa !8
  br label %_ZN4lean10object_refD2Ev.exit

22:                                               ; preds = %17
  %.not.i.i.i2 = icmp eq i32 %18, 0
  br i1 %.not.i.i.i2, label %_ZN4lean10object_refD2Ev.exit, label %23

23:                                               ; preds = %22
  invoke void @lean_dec_ref_cold(ptr noundef nonnull %14)
          to label %_ZN4lean10object_refD2Ev.exit unwind label %24

24:                                               ; preds = %23
  %25 = landingpad { ptr, i32 }
          catch ptr null
  %26 = extractvalue { ptr, i32 } %25, 0
  tail call void @__clang_call_terminate(ptr %26) #23
  unreachable

_ZN4lean10object_refD2Ev.exit:                    ; preds = %13, %20, %22, %23
  ret void

27:                                               ; preds = %_ZN4lean8list_refINS_4nameEEC2ERKS2_.exit
  %28 = landingpad { ptr, i32 }
          cleanup
  call void @_ZN4lean10object_refD2Ev(ptr noundef nonnull align 8 dereferenceable(8) %3) #20
  resume { ptr, i32 } %28
}